target datalayout = "e-m:e-p270:32:32-p271:32:32-p272:64:64-i64:64-i128:128-f80:128-n8:16:32:64-S128"
target triple = "x86_64-pc-linux-gnu"

%struct._generic_SUNAdaptController = type { ptr, ptr, ptr }
%struct.SUNAdaptControllerContent_MRIHTol_ = type { ptr, ptr, double, double, double }

; Function Attrs: nounwind uwtable
define i32 @SUNAdaptController_SetDefaults_MRIHTol(ptr noundef %0) #0 {
  %2 = alloca ptr, align 8
  %3 = alloca ptr, align 8
  store ptr %0, ptr %2, align 8, !tbaa !3
  call void @llvm.lifetime.start.p0(i64 8, ptr %3) #5
  %4 = load ptr, ptr %2, align 8, !tbaa !3
  %5 = getelementptr inbounds nuw %struct._generic_SUNAdaptController, ptr %4, i32 0, i32 2
  %6 = load ptr, ptr %5, align 8, !tbaa !37
  store ptr %6, ptr %3, align 8, !tbaa !8
  %7 = load ptr, ptr %2, align 8, !tbaa !3
  %8 = getelementptr inbounds nuw %struct._generic_SUNAdaptController, ptr %7, i32 0, i32 0
  %9 = load ptr, ptr %8, align 8, !tbaa !31
  %10 = getelementptr inbounds nuw %struct.SUNAdaptControllerContent_MRIHTol_, ptr %9, i32 0, i32 0
  %11 = load ptr, ptr %10, align 8, !tbaa !24
  %12 = call i32 @SUNAdaptController_SetDefaults(ptr noundef %11)
  %13 = load ptr, ptr %2, align 8, !tbaa !3
  %14 = getelementptr inbounds nuw %struct._generic_SUNAdaptController, ptr %13, i32 0, i32 0
  %15 = load ptr, ptr %14, align 8, !tbaa !31
  %16 = getelementptr inbounds nuw %struct.SUNAdaptControllerContent_MRIHTol_, ptr %15, i32 0, i32 1
  %17 = load ptr, ptr %16, align 8, !tbaa !27
  %18 = call i32 @SUNAdaptController_SetDefaults(ptr noundef %17)
  %19 = load ptr, ptr %2, align 8, !tbaa !3
  %20 = getelementptr inbounds nuw %struct._generic_SUNAdaptController, ptr %19, i32 0, i32 0
  %21 = load ptr, ptr %20, align 8, !tbaa !31
  %22 = getelementptr inbounds nuw %struct.SUNAdaptControllerContent_MRIHTol_, ptr %21, i32 0, i32 2
  store double 2.000000e+01, ptr %22, align 8, !tbaa !28
  %23 = load ptr, ptr %2, align 8, !tbaa !3
  %24 = getelementptr inbounds nuw %struct._generic_SUNAdaptController, ptr %23, i32 0, i32 0
  %25 = load ptr, ptr %24, align 8, !tbaa !31
  %26 = getelementptr inbounds nuw %struct.SUNAdaptControllerContent_MRIHTol_, ptr %25, i32 0, i32 3
  store double 1.000000e-05, ptr %26, align 8, !tbaa !29
  %27 = load ptr, ptr %2, align 8, !tbaa !3
  %28 = getelementptr inbounds nuw %struct._generic_SUNAdaptController, ptr %27, i32 0, i32 0
  %29 = load ptr, ptr %28, align 8, !tbaa !31
  %30 = getelementptr inbounds nuw %struct.SUNAdaptControllerContent_MRIHTol_, ptr %29, i32 0, i32 4
  store double 1.000000e+00, ptr %30, align 8, !tbaa !30
  call void @llvm.lifetime.end.p0(i64 8, ptr %3) #5
  ret i32 0
}