; Function Attrs: nounwind uwtable
define noundef i32 @SUNAdaptController_SetDefaults_MRIHTol(ptr noundef readonly captures(none) %0) #0 {
  %2 = load ptr, ptr %0, align 8, !tbaa !27
  %3 = load ptr, ptr %2, align 8, !tbaa !19
  %4 = tail call i32 @SUNAdaptController_SetDefaults(ptr noundef %3) #9
  %5 = load ptr, ptr %0, align 8, !tbaa !27
  %6 = getelementptr inbounds nuw i8, ptr %5, i64 8
  %7 = load ptr, ptr %6, align 8, !tbaa !23
  %8 = tail call i32 @SUNAdaptController_SetDefaults(ptr noundef %7) #9
  %9 = load ptr, ptr %0, align 8, !tbaa !27
  %10 = getelementptr inbounds nuw i8, ptr %9, i64 16
  store double 2.000000e+01, ptr %10, align 8, !tbaa !24
  %11 = getelementptr inbounds nuw i8, ptr %9, i64 24
  store double 1.000000e-05, ptr %11, align 8, !tbaa !25
  %12 = getelementptr inbounds nuw i8, ptr %9, i64 32
  store double 1.000000e+00, ptr %12, align 8, !tbaa !26
  ret i32 0
}